(lp0
S'poi'
p1
aS'salary'
p2
aS'total_payments'
p3
aS'bonus'
p4
aS'deferred_income'
p5
aS'total_stock_value'
p6
aS'exercised_stock_options'
p7
aS'long_term_incentive'
p8
aS'director_fees'
p9
aS'from_poi_to_this_person'
p10
aS'from_this_person_to_poi'
p11
a.